; Function Attrs: mustprogress nofree norecurse nounwind willreturn memory(readwrite, inaccessiblemem: none) uwtable
define noundef zeroext i1 @_ZTv0_n64_NK5arrow2io16MemoryMappedFile6closedEv(ptr nocapture noundef readonly %this) unnamed_addr #8 align 2 personality ptr @__gxx_personality_v0 {
entry:
  %0 = load ptr, ptr %this, align 8
  %1 = getelementptr inbounds i8, ptr %0, i64 -64
  %2 = load i64, ptr %1, align 8
  %3 = getelementptr inbounds i8, ptr %this, i64 %2
  %memory_map_.i = getelementptr inbounds i8, ptr %3, i64 40
  %4 = load ptr, ptr %memory_map_.i, align 8
  %file_.i.i = getelementptr inbounds i8, ptr %4, i64 16
  %5 = load ptr, ptr %file_.i.i, align 8
  %fd_.i.i.i = getelementptr inbounds i8, ptr %5, i64 48
  %6 = load atomic i32, ptr %fd_.i.i.i seq_cst, align 4
  %cmp.i.i.not.i.i = icmp eq i32 %6, -1
  ret i1 %cmp.i.i.not.i.i
}